target datalayout = "e-m:e-p270:32:32-p271:32:32-p272:64:64-i64:64-i128:128-f80:128-n8:16:32:64-S128"
target triple = "x86_64-unknown-linux-gnu"

; Function Attrs: mustprogress uwtable
define void @_ZN6icu_7512ChoiceFormat10setChoicesEPKdPKNS_13UnicodeStringEi(ptr noundef nonnull align 8 dereferenceable(488) %this, ptr noundef %limits, ptr noundef %formats, i32 noundef %cnt) unnamed_addr #1 align 2 {
entry:
  %this.addr = alloca ptr, align 8
  %limits.addr = alloca ptr, align 8
  %formats.addr = alloca ptr, align 8
  %cnt.addr = alloca i32, align 4
  %errorCode = alloca i32, align 4
  store ptr %this, ptr %this.addr, align 8
  store ptr %limits, ptr %limits.addr, align 8
  store ptr %formats, ptr %formats.addr, align 8
  store i32 %cnt, ptr %cnt.addr, align 4
  %this1 = load ptr, ptr %this.addr, align 8
  store i32 0, ptr %errorCode, align 4
  %0 = load ptr, ptr %limits.addr, align 8
  %1 = load ptr, ptr %formats.addr, align 8
  %2 = load i32, ptr %cnt.addr, align 4
  %vtable = load ptr, ptr %this1, align 8
  %vfn = getelementptr inbounds ptr, ptr %vtable, i64 46
  %3 = load ptr, ptr %vfn, align 8
  call void %3(ptr noundef nonnull align 8 dereferenceable(488) %this1, ptr noundef %0, ptr noundef null, ptr noundef %1, i32 noundef %2, ptr noundef nonnull align 4 dereferenceable(4) %errorCode)
  ret void
}