; Function Attrs: mustprogress uwtable
define void @_ZN6icu_7512ChoiceFormat10setChoicesEPKdPKNS_13UnicodeStringEi(ptr noundef nonnull align 8 dereferenceable(488) %this, ptr noundef %limits, ptr noundef %formats, i32 noundef %cnt) unnamed_addr #1 align 2 {
entry:
  %errorCode = alloca i32, align 4
  store i32 0, ptr %errorCode, align 4
  %vtable = load ptr, ptr %this, align 8
  %vfn = getelementptr inbounds i8, ptr %vtable, i64 368
  %0 = load ptr, ptr %vfn, align 8
  call void %0(ptr noundef nonnull align 8 dereferenceable(488) %this, ptr noundef %limits, ptr noundef null, ptr noundef %formats, i32 noundef %cnt, ptr noundef nonnull align 4 dereferenceable(4) %errorCode)
  ret void
}